target datalayout = "e-m:e-p270:32:32-p271:32:32-p272:64:64-i64:64-i128:128-f80:128-n8:16:32:64-S128"
target triple = "x86_64-pc-linux-gnu"

%struct.TupleTableSlotOps = type { i64, ptr, ptr, ptr, ptr, ptr, ptr, ptr, ptr, ptr, ptr, ptr, ptr }
%struct.TupleDescData = type { i32, i32, i32, i32, ptr, [0 x %struct.CompactAttribute] }
%struct.CompactAttribute = type { i32, i16, i8, i8, i8, i8, i8, i8, i8 }
%struct.JunkFilter = type { i32, ptr, ptr, ptr, ptr }
%struct.TupleTableSlot = type { i32, i16, i16, ptr, ptr, ptr, ptr, ptr, %struct.ItemPointerData, i32 }
%struct.ItemPointerData = type { %struct.BlockIdData, i16 }
%struct.BlockIdData = type { i16, i16 }

; Function Attrs: inlinehint nounwind uwtable
define internal void @slot_getsomeattrs(ptr noundef %0, i32 noundef %1) #4 {
  %3 = alloca ptr, align 8
  %4 = alloca i32, align 4
  store ptr %0, ptr %3, align 8
  store i32 %1, ptr %4, align 4
  %5 = load ptr, ptr %3, align 8
  %6 = getelementptr inbounds nuw %struct.TupleTableSlot, ptr %5, i32 0, i32 2
  %7 = load i16, ptr %6, align 2
  %8 = sext i16 %7 to i32
  %9 = load i32, ptr %4, align 4
  %10 = icmp slt i32 %8, %9
  br i1 %10, label %11, label %14

11:                                               ; preds = %2
  %12 = load ptr, ptr %3, align 8
  %13 = load i32, ptr %4, align 4
  call void @slot_getsomeattrs_int(ptr noundef %12, i32 noundef %13)
  br label %14

14:                                               ; preds = %11, %2
  ret void
}

; Function Attrs: inlinehint nounwind uwtable
define internal ptr @ExecClearTuple(ptr noundef %0) #4 {
  %2 = alloca ptr, align 8
  store ptr %0, ptr %2, align 8
  %3 = load ptr, ptr %2, align 8
  %4 = getelementptr inbounds nuw %struct.TupleTableSlot, ptr %3, i32 0, i32 3
  %5 = load ptr, ptr %4, align 8
  %6 = getelementptr inbounds nuw %struct.TupleTableSlotOps, ptr %5, i32 0, i32 3
  %7 = load ptr, ptr %6, align 8
  %8 = load ptr, ptr %2, align 8
  call void %7(ptr noundef %8)
  %9 = load ptr, ptr %2, align 8
  ret ptr %9
}

; Function Attrs: inlinehint nounwind uwtable
define internal void @slot_getallattrs(ptr noundef %0) #4 {
  %2 = alloca ptr, align 8
  store ptr %0, ptr %2, align 8
  %3 = load ptr, ptr %2, align 8
  %4 = load ptr, ptr %2, align 8
  %5 = getelementptr inbounds nuw %struct.TupleTableSlot, ptr %4, i32 0, i32 4
  %6 = load ptr, ptr %5, align 8
  %7 = getelementptr inbounds nuw %struct.TupleDescData, ptr %6, i32 0, i32 0
  %8 = load i32, ptr %7, align 8
  call void @slot_getsomeattrs(ptr noundef %3, i32 noundef %8)
  ret void
}

; Function Attrs: nounwind uwtable
define dso_local ptr @ExecFilterJunk(ptr noundef %0, ptr noundef %1) #0 {
  %3 = alloca ptr, align 8
  %4 = alloca ptr, align 8
  %5 = alloca ptr, align 8
  %6 = alloca ptr, align 8
  %7 = alloca ptr, align 8
  %8 = alloca i32, align 4
  %9 = alloca i32, align 4
  %10 = alloca ptr, align 8
  %11 = alloca ptr, align 8
  %12 = alloca ptr, align 8
  %13 = alloca ptr, align 8
  %14 = alloca i32, align 4
  store ptr %0, ptr %3, align 8
  store ptr %1, ptr %4, align 8
  call void @llvm.lifetime.start.p0(i64 8, ptr %5) #6
  call void @llvm.lifetime.start.p0(i64 8, ptr %6) #6
  call void @llvm.lifetime.start.p0(i64 8, ptr %7) #6
  call void @llvm.lifetime.start.p0(i64 4, ptr %8) #6
  call void @llvm.lifetime.start.p0(i64 4, ptr %9) #6
  call void @llvm.lifetime.start.p0(i64 8, ptr %10) #6
  call void @llvm.lifetime.start.p0(i64 8, ptr %11) #6
  call void @llvm.lifetime.start.p0(i64 8, ptr %12) #6
  call void @llvm.lifetime.start.p0(i64 8, ptr %13) #6
  %15 = load ptr, ptr %4, align 8
  call void @slot_getallattrs(ptr noundef %15)
  %16 = load ptr, ptr %4, align 8
  %17 = getelementptr inbounds nuw %struct.TupleTableSlot, ptr %16, i32 0, i32 5
  %18 = load ptr, ptr %17, align 8
  store ptr %18, ptr %12, align 8
  %19 = load ptr, ptr %4, align 8
  %20 = getelementptr inbounds nuw %struct.TupleTableSlot, ptr %19, i32 0, i32 6
  %21 = load ptr, ptr %20, align 8
  store ptr %21, ptr %13, align 8
  %22 = load ptr, ptr %3, align 8
  %23 = getelementptr inbounds nuw %struct.JunkFilter, ptr %22, i32 0, i32 2
  %24 = load ptr, ptr %23, align 8
  store ptr %24, ptr %7, align 8
  %25 = load ptr, ptr %7, align 8
  %26 = getelementptr inbounds nuw %struct.TupleDescData, ptr %25, i32 0, i32 0
  %27 = load i32, ptr %26, align 8
  store i32 %27, ptr %8, align 4
  %28 = load ptr, ptr %3, align 8
  %29 = getelementptr inbounds nuw %struct.JunkFilter, ptr %28, i32 0, i32 3
  %30 = load ptr, ptr %29, align 8
  store ptr %30, ptr %6, align 8
  %31 = load ptr, ptr %3, align 8
  %32 = getelementptr inbounds nuw %struct.JunkFilter, ptr %31, i32 0, i32 4
  %33 = load ptr, ptr %32, align 8
  store ptr %33, ptr %5, align 8
  %34 = load ptr, ptr %5, align 8
  %35 = call ptr @ExecClearTuple(ptr noundef %34)
  %36 = load ptr, ptr %5, align 8
  %37 = getelementptr inbounds nuw %struct.TupleTableSlot, ptr %36, i32 0, i32 5
  %38 = load ptr, ptr %37, align 8
  store ptr %38, ptr %10, align 8
  %39 = load ptr, ptr %5, align 8
  %40 = getelementptr inbounds nuw %struct.TupleTableSlot, ptr %39, i32 0, i32 6
  %41 = load ptr, ptr %40, align 8
  store ptr %41, ptr %11, align 8
  store i32 0, ptr %9, align 4
  br label %42

42:                                               ; preds = %88, %2
  %43 = load i32, ptr %9, align 4
  %44 = load i32, ptr %8, align 4
  %45 = icmp slt i32 %43, %44
  br i1 %45, label %46, label %91

46:                                               ; preds = %42
  call void @llvm.lifetime.start.p0(i64 4, ptr %14) #6
  %47 = load ptr, ptr %6, align 8
  %48 = load i32, ptr %9, align 4
  %49 = sext i32 %48 to i64
  %50 = getelementptr inbounds i16, ptr %47, i64 %49
  %51 = load i16, ptr %50, align 2
  %52 = sext i16 %51 to i32
  store i32 %52, ptr %14, align 4
  %53 = load i32, ptr %14, align 4
  %54 = icmp eq i32 %53, 0
  br i1 %54, label %55, label %64

55:                                               ; preds = %46
  %56 = load ptr, ptr %10, align 8
  %57 = load i32, ptr %9, align 4
  %58 = sext i32 %57 to i64
  %59 = getelementptr inbounds i64, ptr %56, i64 %58
  store i64 0, ptr %59, align 8
  %60 = load ptr, ptr %11, align 8
  %61 = load i32, ptr %9, align 4
  %62 = sext i32 %61 to i64
  %63 = getelementptr inbounds i8, ptr %60, i64 %62
  store i8 1, ptr %63, align 1
  br label %87

64:                                               ; preds = %46
  %65 = load ptr, ptr %12, align 8
  %66 = load i32, ptr %14, align 4
  %67 = sub i32 %66, 1
  %68 = sext i32 %67 to i64
  %69 = getelementptr inbounds i64, ptr %65, i64 %68
  %70 = load i64, ptr %69, align 8
  %71 = load ptr, ptr %10, align 8
  %72 = load i32, ptr %9, align 4
  %73 = sext i32 %72 to i64
  %74 = getelementptr inbounds i64, ptr %71, i64 %73
  store i64 %70, ptr %74, align 8
  %75 = load ptr, ptr %13, align 8
  %76 = load i32, ptr %14, align 4
  %77 = sub i32 %76, 1
  %78 = sext i32 %77 to i64
  %79 = getelementptr inbounds i8, ptr %75, i64 %78
  %80 = load i8, ptr %79, align 1, !range !4, !noundef !5
  %81 = trunc i8 %80 to i1
  %82 = load ptr, ptr %11, align 8
  %83 = load i32, ptr %9, align 4
  %84 = sext i32 %83 to i64
  %85 = getelementptr inbounds i8, ptr %82, i64 %84
  %86 = zext i1 %81 to i8
  store i8 %86, ptr %85, align 1
  br label %87

87:                                               ; preds = %64, %55
  call void @llvm.lifetime.end.p0(i64 4, ptr %14) #6
  br label %88

88:                                               ; preds = %87
  %89 = load i32, ptr %9, align 4
  %90 = add i32 %89, 1
  store i32 %90, ptr %9, align 4
  br label %42, !llvm.loop !10

91:                                               ; preds = %42
  %92 = load ptr, ptr %5, align 8
  %93 = call ptr @ExecStoreVirtualTuple(ptr noundef %92)
  call void @llvm.lifetime.end.p0(i64 8, ptr %13) #6
  call void @llvm.lifetime.end.p0(i64 8, ptr %12) #6
  call void @llvm.lifetime.end.p0(i64 8, ptr %11) #6
  call void @llvm.lifetime.end.p0(i64 8, ptr %10) #6
  call void @llvm.lifetime.end.p0(i64 4, ptr %9) #6
  call void @llvm.lifetime.end.p0(i64 4, ptr %8) #6
  call void @llvm.lifetime.end.p0(i64 8, ptr %7) #6
  call void @llvm.lifetime.end.p0(i64 8, ptr %6) #6
  call void @llvm.lifetime.end.p0(i64 8, ptr %5) #6
  ret ptr %93
}