; Function Attrs: nounwind uwtable
define dso_local ptr @ExecFilterJunk(ptr noundef readonly captures(none) %0, ptr noundef %1) local_unnamed_addr #0 {
  %3 = getelementptr inbounds nuw i8, ptr %1, i64 16
  %4 = load ptr, ptr %3, align 8
  %5 = load i32, ptr %4, align 8
  %6 = getelementptr inbounds nuw i8, ptr %1, i64 6
  %7 = load i16, ptr %6, align 2
  %8 = sext i16 %7 to i32
  %9 = icmp sgt i32 %5, %8
  br i1 %9, label %10, label %slot_getallattrs.exit

10:                                               ; preds = %2
  tail call void @slot_getsomeattrs_int(ptr noundef nonnull %1, i32 noundef %5) #4
  br label %slot_getallattrs.exit

slot_getallattrs.exit:                            ; preds = %2, %10
  %11 = getelementptr inbounds nuw i8, ptr %1, i64 24
  %12 = load ptr, ptr %11, align 8
  %13 = getelementptr inbounds nuw i8, ptr %1, i64 32
  %14 = load ptr, ptr %13, align 8
  %15 = getelementptr inbounds nuw i8, ptr %0, i64 16
  %16 = load ptr, ptr %15, align 8
  %17 = load i32, ptr %16, align 8
  %18 = getelementptr inbounds nuw i8, ptr %0, i64 24
  %19 = load ptr, ptr %18, align 8
  %20 = getelementptr inbounds nuw i8, ptr %0, i64 32
  %21 = load ptr, ptr %20, align 8
  %22 = getelementptr inbounds nuw i8, ptr %21, i64 8
  %23 = load ptr, ptr %22, align 8
  %24 = getelementptr inbounds nuw i8, ptr %23, i64 24
  %25 = load ptr, ptr %24, align 8
  tail call void %25(ptr noundef %21) #4
  %26 = getelementptr inbounds nuw i8, ptr %21, i64 24
  %27 = load ptr, ptr %26, align 8
  %28 = getelementptr inbounds nuw i8, ptr %21, i64 32
  %29 = load ptr, ptr %28, align 8
  %30 = icmp sgt i32 %17, 0
  br i1 %30, label %.lr.ph.preheader, label %._crit_edge

.lr.ph.preheader:                                 ; preds = %slot_getallattrs.exit
  %wide.trip.count = zext nneg i32 %17 to i64
  br label %.lr.ph

.lr.ph:                                           ; preds = %.lr.ph.preheader, %44
  %indvars.iv = phi i64 [ 0, %.lr.ph.preheader ], [ %indvars.iv.next, %44 ]
  %31 = getelementptr inbounds nuw i16, ptr %19, i64 %indvars.iv
  %32 = load i16, ptr %31, align 2
  %33 = icmp eq i16 %32, 0
  br i1 %33, label %34, label %36

34:                                               ; preds = %.lr.ph
  %35 = getelementptr inbounds nuw i64, ptr %27, i64 %indvars.iv
  store i64 0, ptr %35, align 8
  br label %44

36:                                               ; preds = %.lr.ph
  %37 = sext i16 %32 to i64
  %38 = add nsw i64 %37, -1
  %39 = getelementptr inbounds i64, ptr %12, i64 %38
  %40 = load i64, ptr %39, align 8
  %41 = getelementptr inbounds nuw i64, ptr %27, i64 %indvars.iv
  store i64 %40, ptr %41, align 8
  %42 = getelementptr inbounds i8, ptr %14, i64 %38
  %43 = load i8, ptr %42, align 1, !range !4, !noundef !5
  br label %44

44:                                               ; preds = %36, %34
  %.sink = phi i8 [ 1, %34 ], [ %43, %36 ]
  %45 = getelementptr inbounds nuw i8, ptr %29, i64 %indvars.iv
  store i8 %.sink, ptr %45, align 1
  %indvars.iv.next = add nuw nsw i64 %indvars.iv, 1
  %exitcond.not = icmp eq i64 %indvars.iv.next, %wide.trip.count
  br i1 %exitcond.not, label %._crit_edge, label %.lr.ph, !llvm.loop !8

._crit_edge:                                      ; preds = %44, %slot_getallattrs.exit
  %46 = tail call ptr @ExecStoreVirtualTuple(ptr noundef %21) #4
  ret ptr %46
}